; ModuleID = '32/282.c'
source_filename = "32/282.c"
target datalayout = "e-m:e-p270:32:32-p271:32:32-p272:64:64-i64:64-f80:128-n8:16:32:64-S128"
target triple = "x86_64-pc-linux-gnu"

@.str = private unnamed_addr constant [4 x i8] c"%d\0A\00", align 1
@.str.1 = private unnamed_addr constant [8 x i8] c"%s\0A%s\0A\0A\00", align 1
@.str.2 = private unnamed_addr constant [4 x i8] c"%s\0A\00", align 1

; Function Attrs: noinline nounwind uwtable
define dso_local void @main() #0 {
  %1 = alloca i32, align 4
  %2 = alloca i32, align 4
  %3 = alloca [100 x [100 x i8]], align 16
  %4 = alloca [100 x [100 x i8]], align 16
  %5 = call i32 (i8*, ...) @__isoc99_scanf(i8* getelementptr inbounds ([4 x i8], [4 x i8]* @.str, i64 0, i64 0), i32* %1)
  store i32 1, i32* %2, align 4
  br label %6

6:                                                ; preds = %33, %0
  %7 = load i32, i32* %2, align 4
  %8 = load i32, i32* %1, align 4
  %9 = icmp sle i32 %7, %8
  br i1 %9, label %10, label %36

10:                                               ; preds = %6
  %11 = load i32, i32* %2, align 4
  %12 = sext i32 %11 to i64
  %13 = getelementptr inbounds [100 x [100 x i8]], [100 x [100 x i8]]* %3, i64 0, i64 %12
  %14 = getelementptr inbounds [100 x i8], [100 x i8]* %13, i64 0, i64 0
  %15 = load i32, i32* %2, align 4
  %16 = sext i32 %15 to i64
  %17 = getelementptr inbounds [100 x [100 x i8]], [100 x [100 x i8]]* %4, i64 0, i64 %16
  %18 = getelementptr inbounds [100 x i8], [100 x i8]* %17, i64 0, i64 0
  %19 = call i32 (i8*, ...) @__isoc99_scanf(i8* getelementptr inbounds ([8 x i8], [8 x i8]* @.str.1, i64 0, i64 0), i8* %14, i8* %18)
  %20 = load i32, i32* %2, align 4
  %21 = sext i32 %20 to i64
  %22 = getelementptr inbounds [100 x [100 x i8]], [100 x [100 x i8]]* %3, i64 0, i64 %21
  %23 = getelementptr inbounds [100 x i8], [100 x i8]* %22, i64 0, i64 0
  %24 = load i32, i32* %2, align 4
  %25 = sext i32 %24 to i64
  %26 = getelementptr inbounds [100 x [100 x i8]], [100 x [100 x i8]]* %4, i64 0, i64 %25
  %27 = getelementptr inbounds [100 x i8], [100 x i8]* %26, i64 0, i64 0
  call void @minus(i8* %23, i8* %27)
  %28 = load i32, i32* %2, align 4
  %29 = sext i32 %28 to i64
  %30 = getelementptr inbounds [100 x [100 x i8]], [100 x [100 x i8]]* %3, i64 0, i64 %29
  %31 = getelementptr inbounds [100 x i8], [100 x i8]* %30, i64 0, i64 0
  %32 = call i32 (i8*, ...) @printf(i8* getelementptr inbounds ([4 x i8], [4 x i8]* @.str.2, i64 0, i64 0), i8* %31)
  br label %33

33:                                               ; preds = %10
  %34 = load i32, i32* %2, align 4
  %35 = add nsw i32 %34, 1
  store i32 %35, i32* %2, align 4
  br label %6

36:                                               ; preds = %6
  ret void
}

declare dso_local i32 @__isoc99_scanf(i8*, ...) #1

; Function Attrs: noinline nounwind uwtable
define dso_local void @minus(i8* %0, i8* %1) #0 {
  %3 = alloca i8*, align 8
  %4 = alloca i8*, align 8
  %5 = alloca i32, align 4
  %6 = alloca i32, align 4
  %7 = alloca i32, align 4
  %8 = alloca i32, align 4
  %9 = alloca i32, align 4
  %10 = alloca i32, align 4
  %11 = alloca i32, align 4
  %12 = alloca i32, align 4
  store i8* %0, i8** %3, align 8
  store i8* %1, i8** %4, align 8
  store i32 0, i32* %12, align 4
  %13 = load i8*, i8** %3, align 8
  %14 = call i64 @strlen(i8* %13) #3
  %15 = sub i64 %14, 1
  %16 = trunc i64 %15 to i32
  store i32 %16, i32* %5, align 4
  %17 = load i8*, i8** %4, align 8
  %18 = call i64 @strlen(i8* %17) #3
  %19 = sub i64 %18, 1
  %20 = trunc i64 %19 to i32
  store i32 %20, i32* %6, align 4
  %21 = load i32, i32* %5, align 4
  %22 = load i32, i32* %6, align 4
  %23 = sub nsw i32 %21, %22
  store i32 %23, i32* %7, align 4
  br label %24

24:                                               ; preds = %79, %2
  %25 = load i32, i32* %7, align 4
  %26 = load i32, i32* %5, align 4
  %27 = icmp sle i32 %25, %26
  br i1 %27, label %28, label %82

28:                                               ; preds = %24
  %29 = load i8*, i8** %3, align 8
  %30 = load i32, i32* %7, align 4
  %31 = sext i32 %30 to i64
  %32 = getelementptr inbounds i8, i8* %29, i64 %31
  %33 = load i8, i8* %32, align 1
  %34 = sext i8 %33 to i32
  store i32 %34, i32* %10, align 4
  %35 = load i8*, i8** %4, align 8
  %36 = load i32, i32* %12, align 4
  %37 = sext i32 %36 to i64
  %38 = getelementptr inbounds i8, i8* %35, i64 %37
  %39 = load i8, i8* %38, align 1
  %40 = sext i8 %39 to i32
  store i32 %40, i32* %11, align 4
  %41 = load i32, i32* %10, align 4
  %42 = load i32, i32* %11, align 4
  %43 = sub nsw i32 %41, %42
  %44 = add nsw i32 %43, 48
  %45 = trunc i32 %44 to i8
  %46 = load i8*, i8** %3, align 8
  %47 = load i32, i32* %7, align 4
  %48 = sext i32 %47 to i64
  %49 = getelementptr inbounds i8, i8* %46, i64 %48
  store i8 %45, i8* %49, align 1
  %50 = load i32, i32* %7, align 4
  store i32 %50, i32* %8, align 4
  br label %51

51:                                               ; preds = %59, %28
  %52 = load i8*, i8** %3, align 8
  %53 = load i32, i32* %7, align 4
  %54 = sext i32 %53 to i64
  %55 = getelementptr inbounds i8, i8* %52, i64 %54
  %56 = load i8, i8* %55, align 1
  %57 = sext i8 %56 to i32
  %58 = icmp slt i32 %57, 48
  br i1 %58, label %59, label %75

59:                                               ; preds = %51
  %60 = load i8*, i8** %3, align 8
  %61 = load i32, i32* %7, align 4
  %62 = sext i32 %61 to i64
  %63 = getelementptr inbounds i8, i8* %60, i64 %62
  %64 = load i8, i8* %63, align 1
  %65 = sext i8 %64 to i32
  %66 = add nsw i32 %65, 10
  %67 = trunc i32 %66 to i8
  store i8 %67, i8* %63, align 1
  %68 = load i8*, i8** %3, align 8
  %69 = load i32, i32* %7, align 4
  %70 = add nsw i32 %69, -1
  store i32 %70, i32* %7, align 4
  %71 = sext i32 %70 to i64
  %72 = getelementptr inbounds i8, i8* %68, i64 %71
  %73 = load i8, i8* %72, align 1
  %74 = add i8 %73, -1
  store i8 %74, i8* %72, align 1
  br label %51

75:                                               ; preds = %51
  %76 = load i32, i32* %8, align 4
  store i32 %76, i32* %7, align 4
  %77 = load i32, i32* %12, align 4
  %78 = add nsw i32 %77, 1
  store i32 %78, i32* %12, align 4
  br label %79

79:                                               ; preds = %75
  %80 = load i32, i32* %7, align 4
  %81 = add nsw i32 %80, 1
  store i32 %81, i32* %7, align 4
  br label %24

82:                                               ; preds = %24
  store i32 0, i32* %7, align 4
  br label %83

83:                                               ; preds = %109, %82
  %84 = load i8*, i8** %3, align 8
  %85 = load i32, i32* %7, align 4
  %86 = sext i32 %85 to i64
  %87 = getelementptr inbounds i8, i8* %84, i64 %86
  %88 = load i8, i8* %87, align 1
  %89 = sext i8 %88 to i32
  %90 = icmp eq i32 %89, 48
  br i1 %90, label %91, label %112

91:                                               ; preds = %83
  store i32 0, i32* %9, align 4
  br label %92

92:                                               ; preds = %98, %91
  %93 = load i32, i32* %9, align 4
  %94 = sext i32 %93 to i64
  %95 = load i8*, i8** %3, align 8
  %96 = call i64 @strlen(i8* %95) #3
  %97 = icmp ule i64 %94, %96
  br i1 %97, label %98, label %109

98:                                               ; preds = %92
  %99 = load i8*, i8** %3, align 8
  %100 = load i32, i32* %9, align 4
  %101 = add nsw i32 %100, 1
  store i32 %101, i32* %9, align 4
  %102 = sext i32 %101 to i64
  %103 = getelementptr inbounds i8, i8* %99, i64 %102
  %104 = load i8, i8* %103, align 1
  %105 = load i8*, i8** %3, align 8
  %106 = load i32, i32* %9, align 4
  %107 = sext i32 %106 to i64
  %108 = getelementptr inbounds i8, i8* %105, i64 %107
  store i8 %104, i8* %108, align 1
  br label %92

109:                                              ; preds = %92
  %110 = load i32, i32* %7, align 4
  %111 = add nsw i32 %110, 1
  store i32 %111, i32* %7, align 4
  br label %83

112:                                              ; preds = %83
  ret void
}

declare dso_local i32 @printf(i8*, ...) #1

; Function Attrs: nounwind readonly
declare dso_local i64 @strlen(i8*) #2


!llvm.module.flags = !{!0}
!llvm.ident = !{!1}

!0 = !{i32 1, !"wchar_size", i32 4}
!1 = !{!"clang version 10.0.0-4ubuntu1 "}
